target datalayout = "e-m:e-p270:32:32-p271:32:32-p272:64:64-i64:64-i128:128-f80:128-n8:16:32:64-S128"
target triple = "x86_64-pc-linux-gnu"

%struct.ResourceOwnerData = type { ptr, ptr, ptr, ptr, i8, i8, i8, i8, i32, [32 x %struct.ResourceElem], ptr, i32, i32, [15 x ptr] }
%struct.ResourceElem = type { i64, ptr }

; Function Attrs: nounwind uwtable
define dso_local void @ResourceOwnerNewParent(ptr noundef %0, ptr noundef %1) #0 {
  %3 = alloca ptr, align 8
  %4 = alloca ptr, align 8
  %5 = alloca ptr, align 8
  %6 = alloca ptr, align 8
  store ptr %0, ptr %3, align 8
  store ptr %1, ptr %4, align 8
  call void @llvm.lifetime.start.p0(i64 8, ptr %5) #6
  %7 = load ptr, ptr %3, align 8
  %8 = getelementptr inbounds nuw %struct.ResourceOwnerData, ptr %7, i32 0, i32 0
  %9 = load ptr, ptr %8, align 8
  store ptr %9, ptr %5, align 8
  %10 = load ptr, ptr %5, align 8
  %11 = icmp ne ptr %10, null
  br i1 %11, label %12, label %50

12:                                               ; preds = %2
  %13 = load ptr, ptr %3, align 8
  %14 = load ptr, ptr %5, align 8
  %15 = getelementptr inbounds nuw %struct.ResourceOwnerData, ptr %14, i32 0, i32 1
  %16 = load ptr, ptr %15, align 8
  %17 = icmp eq ptr %13, %16
  br i1 %17, label %18, label %24

18:                                               ; preds = %12
  %19 = load ptr, ptr %3, align 8
  %20 = getelementptr inbounds nuw %struct.ResourceOwnerData, ptr %19, i32 0, i32 2
  %21 = load ptr, ptr %20, align 8
  %22 = load ptr, ptr %5, align 8
  %23 = getelementptr inbounds nuw %struct.ResourceOwnerData, ptr %22, i32 0, i32 1
  store ptr %21, ptr %23, align 8
  br label %49

24:                                               ; preds = %12
  call void @llvm.lifetime.start.p0(i64 8, ptr %6) #6
  %25 = load ptr, ptr %5, align 8
  %26 = getelementptr inbounds nuw %struct.ResourceOwnerData, ptr %25, i32 0, i32 1
  %27 = load ptr, ptr %26, align 8
  store ptr %27, ptr %6, align 8
  br label %28

28:                                               ; preds = %44, %24
  %29 = load ptr, ptr %6, align 8
  %30 = icmp ne ptr %29, null
  br i1 %30, label %31, label %48

31:                                               ; preds = %28
  %32 = load ptr, ptr %3, align 8
  %33 = load ptr, ptr %6, align 8
  %34 = getelementptr inbounds nuw %struct.ResourceOwnerData, ptr %33, i32 0, i32 2
  %35 = load ptr, ptr %34, align 8
  %36 = icmp eq ptr %32, %35
  br i1 %36, label %37, label %43

37:                                               ; preds = %31
  %38 = load ptr, ptr %3, align 8
  %39 = getelementptr inbounds nuw %struct.ResourceOwnerData, ptr %38, i32 0, i32 2
  %40 = load ptr, ptr %39, align 8
  %41 = load ptr, ptr %6, align 8
  %42 = getelementptr inbounds nuw %struct.ResourceOwnerData, ptr %41, i32 0, i32 2
  store ptr %40, ptr %42, align 8
  br label %48

43:                                               ; preds = %31
  br label %44

44:                                               ; preds = %43
  %45 = load ptr, ptr %6, align 8
  %46 = getelementptr inbounds nuw %struct.ResourceOwnerData, ptr %45, i32 0, i32 2
  %47 = load ptr, ptr %46, align 8
  store ptr %47, ptr %6, align 8
  br label %28, !llvm.loop !16

48:                                               ; preds = %37, %28
  call void @llvm.lifetime.end.p0(i64 8, ptr %6) #6
  br label %49

49:                                               ; preds = %48, %18
  br label %50

50:                                               ; preds = %49, %2
  %51 = load ptr, ptr %4, align 8
  %52 = icmp ne ptr %51, null
  br i1 %52, label %53, label %65

53:                                               ; preds = %50
  %54 = load ptr, ptr %4, align 8
  %55 = load ptr, ptr %3, align 8
  %56 = getelementptr inbounds nuw %struct.ResourceOwnerData, ptr %55, i32 0, i32 0
  store ptr %54, ptr %56, align 8
  %57 = load ptr, ptr %4, align 8
  %58 = getelementptr inbounds nuw %struct.ResourceOwnerData, ptr %57, i32 0, i32 1
  %59 = load ptr, ptr %58, align 8
  %60 = load ptr, ptr %3, align 8
  %61 = getelementptr inbounds nuw %struct.ResourceOwnerData, ptr %60, i32 0, i32 2
  store ptr %59, ptr %61, align 8
  %62 = load ptr, ptr %3, align 8
  %63 = load ptr, ptr %4, align 8
  %64 = getelementptr inbounds nuw %struct.ResourceOwnerData, ptr %63, i32 0, i32 1
  store ptr %62, ptr %64, align 8
  br label %70

65:                                               ; preds = %50
  %66 = load ptr, ptr %3, align 8
  %67 = getelementptr inbounds nuw %struct.ResourceOwnerData, ptr %66, i32 0, i32 0
  store ptr null, ptr %67, align 8
  %68 = load ptr, ptr %3, align 8
  %69 = getelementptr inbounds nuw %struct.ResourceOwnerData, ptr %68, i32 0, i32 2
  store ptr null, ptr %69, align 8
  br label %70

70:                                               ; preds = %65, %53
  call void @llvm.lifetime.end.p0(i64 8, ptr %5) #6
  ret void
}

; Function Attrs: nounwind uwtable
define dso_local void @ResourceOwnerDelete(ptr noundef %0) #0 {
  %2 = alloca ptr, align 8
  store ptr %0, ptr %2, align 8
  br label %3

3:                                                ; preds = %8, %1
  %4 = load ptr, ptr %2, align 8
  %5 = getelementptr inbounds nuw %struct.ResourceOwnerData, ptr %4, i32 0, i32 1
  %6 = load ptr, ptr %5, align 8
  %7 = icmp ne ptr %6, null
  br i1 %7, label %8, label %12

8:                                                ; preds = %3
  %9 = load ptr, ptr %2, align 8
  %10 = getelementptr inbounds nuw %struct.ResourceOwnerData, ptr %9, i32 0, i32 1
  %11 = load ptr, ptr %10, align 8
  call void @ResourceOwnerDelete(ptr noundef %11)
  br label %3, !llvm.loop !15

12:                                               ; preds = %3
  %13 = load ptr, ptr %2, align 8
  call void @ResourceOwnerNewParent(ptr noundef %13, ptr noundef null)
  %14 = load ptr, ptr %2, align 8
  %15 = getelementptr inbounds nuw %struct.ResourceOwnerData, ptr %14, i32 0, i32 10
  %16 = load ptr, ptr %15, align 8
  %17 = icmp ne ptr %16, null
  br i1 %17, label %18, label %22

18:                                               ; preds = %12
  %19 = load ptr, ptr %2, align 8
  %20 = getelementptr inbounds nuw %struct.ResourceOwnerData, ptr %19, i32 0, i32 10
  %21 = load ptr, ptr %20, align 8
  call void @pfree(ptr noundef %21)
  br label %22

22:                                               ; preds = %18, %12
  %23 = load ptr, ptr %2, align 8
  call void @pfree(ptr noundef %23)
  ret void
}