; Function Attrs: nounwind uwtable
define dso_local void @ResourceOwnerDelete(ptr noundef %0) local_unnamed_addr #0 {
  %2 = getelementptr inbounds nuw i8, ptr %0, i64 8
  %3 = load ptr, ptr %2, align 8
  %.not8 = icmp eq ptr %3, null
  br i1 %.not8, label %._crit_edge, label %.lr.ph

.lr.ph:                                           ; preds = %1, %.lr.ph
  %4 = phi ptr [ %5, %.lr.ph ], [ %3, %1 ]
  tail call void @ResourceOwnerDelete(ptr noundef nonnull %4)
  %5 = load ptr, ptr %2, align 8
  %.not = icmp eq ptr %5, null
  br i1 %.not, label %._crit_edge, label %.lr.ph, !llvm.loop !17

._crit_edge:                                      ; preds = %.lr.ph, %1
  %6 = load ptr, ptr %0, align 8
  %.not.i = icmp eq ptr %6, null
  br i1 %.not.i, label %ResourceOwnerNewParent.exit, label %7

7:                                                ; preds = %._crit_edge
  %8 = getelementptr inbounds nuw i8, ptr %6, i64 8
  %9 = load ptr, ptr %8, align 8
  %10 = icmp eq ptr %0, %9
  br i1 %10, label %11, label %.preheader.i

11:                                               ; preds = %7
  %12 = getelementptr inbounds nuw i8, ptr %0, i64 16
  %13 = load ptr, ptr %12, align 8
  store ptr %13, ptr %8, align 8
  br label %ResourceOwnerNewParent.exit

.preheader.i:                                     ; preds = %7, %14
  %.0.i = phi ptr [ %16, %14 ], [ %9, %7 ]
  %.not27.i = icmp eq ptr %.0.i, null
  br i1 %.not27.i, label %ResourceOwnerNewParent.exit, label %14

14:                                               ; preds = %.preheader.i
  %15 = getelementptr inbounds nuw i8, ptr %.0.i, i64 16
  %16 = load ptr, ptr %15, align 8
  %17 = icmp eq ptr %0, %16
  br i1 %17, label %18, label %.preheader.i, !llvm.loop !18

18:                                               ; preds = %14
  %19 = getelementptr inbounds nuw i8, ptr %.0.i, i64 16
  %20 = getelementptr inbounds nuw i8, ptr %0, i64 16
  %21 = load ptr, ptr %20, align 8
  store ptr %21, ptr %19, align 8
  br label %ResourceOwnerNewParent.exit

ResourceOwnerNewParent.exit:                      ; preds = %.preheader.i, %._crit_edge, %11, %18
  store ptr null, ptr %0, align 8
  %22 = getelementptr inbounds nuw i8, ptr %0, i64 16
  store ptr null, ptr %22, align 8
  %23 = getelementptr inbounds nuw i8, ptr %0, i64 552
  %24 = load ptr, ptr %23, align 8
  %.not7 = icmp eq ptr %24, null
  br i1 %.not7, label %26, label %25

25:                                               ; preds = %ResourceOwnerNewParent.exit
  tail call void @pfree(ptr noundef nonnull %24) #10
  br label %26

26:                                               ; preds = %25, %ResourceOwnerNewParent.exit
  tail call void @pfree(ptr noundef nonnull %0) #10
  ret void
}